; Function Attrs: nounwind uwtable
define range(i32 0, 2) i32 @ossl_ec_check_security_strength(ptr noundef %0, i32 noundef %1) local_unnamed_addr #0 {
  %3 = tail call i32 @EC_GROUP_order_bits(ptr noundef %0) #3
  %4 = icmp sgt i32 %3, 159
  %5 = icmp eq i32 %1, 0
  %6 = icmp sgt i32 %3, 223
  %or.cond.not = or i1 %5, %6
  %narrow = and i1 %4, %or.cond.not
  %.0 = zext i1 %narrow to i32
  ret i32 %.0
}